target datalayout = "e-m:e-p270:32:32-p271:32:32-p272:64:64-i64:64-i128:128-f80:128-n8:16:32:64-S128"
target triple = "x86_64-pc-linux-gnu"

%struct.compressionParameters = type { i32, ptr, i32, ptr, ptr, ptr, ptr, ptr, ptr, ptr, ptr }

; Function Attrs: nounwind uwtable
define internal void @LZ4_compressResetStream(ptr noundef %0) #0 {
  %2 = alloca ptr, align 8
  store ptr %0, ptr %2, align 8, !tbaa !65
  %3 = load ptr, ptr %2, align 8, !tbaa !65
  %4 = getelementptr inbounds nuw %struct.compressionParameters, ptr %3, i32 0, i32 3
  %5 = load ptr, ptr %4, align 8, !tbaa !72
  call void @LZ4_resetStream_fast(ptr noundef %5)
  %6 = load ptr, ptr %2, align 8, !tbaa !65
  %7 = getelementptr inbounds nuw %struct.compressionParameters, ptr %6, i32 0, i32 3
  %8 = load ptr, ptr %7, align 8, !tbaa !72
  %9 = load ptr, ptr %2, align 8, !tbaa !65
  %10 = getelementptr inbounds nuw %struct.compressionParameters, ptr %9, i32 0, i32 4
  %11 = load ptr, ptr %10, align 8, !tbaa !73
  call void @LZ4_attach_dictionary(ptr noundef %8, ptr noundef %11)
  ret void
}

; Function Attrs: nounwind uwtable
define internal i32 @LZ4_compressBlockStream(ptr noundef %0, ptr noundef %1, ptr noundef %2, i32 noundef %3, i32 noundef %4) #0 {
  %6 = alloca ptr, align 8
  %7 = alloca ptr, align 8
  %8 = alloca ptr, align 8
  %9 = alloca i32, align 4
  %10 = alloca i32, align 4
  %11 = alloca i32, align 4
  store ptr %0, ptr %6, align 8, !tbaa !65
  store ptr %1, ptr %7, align 8, !tbaa !15
  store ptr %2, ptr %8, align 8, !tbaa !15
  store i32 %3, ptr %9, align 4, !tbaa !4
  store i32 %4, ptr %10, align 4, !tbaa !4
  call void @llvm.lifetime.start.p0(i64 4, ptr %11) #9
  %12 = load ptr, ptr %6, align 8, !tbaa !65
  %13 = getelementptr inbounds nuw %struct.compressionParameters, ptr %12, i32 0, i32 0
  %14 = load i32, ptr %13, align 8, !tbaa !67
  %15 = icmp slt i32 %14, 0
  br i1 %15, label %16, label %22

16:                                               ; preds = %5
  %17 = load ptr, ptr %6, align 8, !tbaa !65
  %18 = getelementptr inbounds nuw %struct.compressionParameters, ptr %17, i32 0, i32 0
  %19 = load i32, ptr %18, align 8, !tbaa !67
  %20 = sub nsw i32 0, %19
  %21 = add nsw i32 %20, 1
  br label %23

22:                                               ; preds = %5
  br label %23

23:                                               ; preds = %22, %16
  %24 = phi i32 [ %21, %16 ], [ 1, %22 ]
  store i32 %24, ptr %11, align 4, !tbaa !4
  %25 = load ptr, ptr %6, align 8, !tbaa !65
  call void @LZ4_compressResetStream(ptr noundef %25)
  %26 = load ptr, ptr %6, align 8, !tbaa !65
  %27 = getelementptr inbounds nuw %struct.compressionParameters, ptr %26, i32 0, i32 3
  %28 = load ptr, ptr %27, align 8, !tbaa !72
  %29 = load ptr, ptr %7, align 8, !tbaa !15
  %30 = load ptr, ptr %8, align 8, !tbaa !15
  %31 = load i32, ptr %9, align 4, !tbaa !4
  %32 = load i32, ptr %10, align 4, !tbaa !4
  %33 = load i32, ptr %11, align 4, !tbaa !4
  %34 = call i32 @LZ4_compress_fast_continue(ptr noundef %28, ptr noundef %29, ptr noundef %30, i32 noundef %31, i32 noundef %32, i32 noundef %33)
  call void @llvm.lifetime.end.p0(i64 4, ptr %11) #9
  ret i32 %34
}