; Function Attrs: nounwind uwtable
define internal i32 @LZ4_compressBlockStream(ptr noundef readonly captures(none) %0, ptr noundef %1, ptr noundef %2, i32 noundef %3, i32 noundef %4) #3 {
  %6 = load i32, ptr %0, align 8, !tbaa !23
  %7 = icmp slt i32 %6, 0
  %8 = sub i32 1, %6
  %spec.select = select i1 %7, i32 %8, i32 1
  %9 = getelementptr inbounds nuw i8, ptr %0, i64 24
  %10 = load ptr, ptr %9, align 8, !tbaa !63
  tail call void @LZ4_resetStream_fast(ptr noundef %10) #19
  %11 = load ptr, ptr %9, align 8, !tbaa !63
  %12 = getelementptr inbounds nuw i8, ptr %0, i64 32
  %13 = load ptr, ptr %12, align 8, !tbaa !64
  tail call void @LZ4_attach_dictionary(ptr noundef %11, ptr noundef %13) #19
  %14 = load ptr, ptr %9, align 8, !tbaa !63
  %15 = tail call i32 @LZ4_compress_fast_continue(ptr noundef %14, ptr noundef %1, ptr noundef %2, i32 noundef %3, i32 noundef %4, i32 noundef %spec.select) #19
  ret i32 %15
}